target datalayout = "e-m:e-p270:32:32-p271:32:32-p272:64:64-i64:64-i128:128-f80:128-n8:16:32:64-S128"
target triple = "x86_64-pc-linux-gnu"

%class.anon = type { ptr }
%"class.pxrInternal_v0_24__pxrReserved__::TfSpinMutex" = type { %"struct.std::atomic" }
%"struct.std::atomic" = type { %"struct.std::__atomic_base" }
%"struct.std::__atomic_base" = type { i8 }

$_ZNSt11this_thread5yieldEv = comdat any

$_ZNSt6atomicIbE8exchangeEbSt12memory_order = comdat any

$__clang_call_terminate = comdat any

; Function Attrs: mustprogress uwtable
define void @_ZN32pxrInternal_v0_24__pxrReserved__11TfSpinMutex17_AcquireContendedEv(ptr noundef nonnull align 1 dereferenceable(1) %0) #0 align 2 {
  %2 = alloca ptr, align 8
  %3 = alloca %class.anon, align 8
  store ptr %0, ptr %2, align 8
  %4 = load ptr, ptr %2, align 8
  %5 = getelementptr inbounds nuw %class.anon, ptr %3, i32 0, i32 0
  store ptr %4, ptr %5, align 8
  call void @"_ZN32pxrInternal_v0_24__pxrReserved__L15WaitWithBackoffIZNS_11TfSpinMutex17_AcquireContendedEvE3$_0EEvOT_"(ptr noundef nonnull align 8 dereferenceable(8) %3)
  ret void
}

; Function Attrs: mustprogress uwtable
define internal void @"_ZN32pxrInternal_v0_24__pxrReserved__L15WaitWithBackoffIZNS_11TfSpinMutex17_AcquireContendedEvE3$_0EEvOT_"(ptr noundef nonnull align 8 dereferenceable(8) %0) #0 {
  %2 = alloca ptr, align 8
  %3 = alloca i32, align 4
  store ptr %0, ptr %2, align 8
  %4 = load ptr, ptr %2, align 8
  %5 = call noundef zeroext i1 @"_ZZN32pxrInternal_v0_24__pxrReserved__11TfSpinMutex17_AcquireContendedEvENK3$_0clEv"(ptr noundef nonnull align 8 dereferenceable(8) %4)
  br i1 %5, label %6, label %7

6:                                                ; preds = %1
  br label %25

7:                                                ; preds = %1
  store i32 0, ptr %3, align 4
  br label %8

8:                                                ; preds = %16, %7
  %9 = load i32, ptr %3, align 4
  %10 = icmp ne i32 %9, 32
  br i1 %10, label %11, label %19

11:                                               ; preds = %8
  call void @llvm.x86.sse2.pause()
  %12 = load ptr, ptr %2, align 8
  %13 = call noundef zeroext i1 @"_ZZN32pxrInternal_v0_24__pxrReserved__11TfSpinMutex17_AcquireContendedEvENK3$_0clEv"(ptr noundef nonnull align 8 dereferenceable(8) %12)
  br i1 %13, label %14, label %15

14:                                               ; preds = %11
  br label %25

15:                                               ; preds = %11
  br label %16

16:                                               ; preds = %15
  %17 = load i32, ptr %3, align 4
  %18 = add nsw i32 %17, 1
  store i32 %18, ptr %3, align 4
  br label %8, !llvm.loop !4

19:                                               ; preds = %8
  br label %20

20:                                               ; preds = %21, %19
  call void @_ZNSt11this_thread5yieldEv() #2
  br label %21

21:                                               ; preds = %20
  %22 = load ptr, ptr %2, align 8
  %23 = call noundef zeroext i1 @"_ZZN32pxrInternal_v0_24__pxrReserved__11TfSpinMutex17_AcquireContendedEvENK3$_0clEv"(ptr noundef nonnull align 8 dereferenceable(8) %22)
  %24 = xor i1 %23, true
  br i1 %24, label %20, label %25, !llvm.loop !6

25:                                               ; preds = %21, %14, %6
  ret void
}

; Function Attrs: mustprogress nounwind uwtable
define internal noundef zeroext i1 @"_ZZN32pxrInternal_v0_24__pxrReserved__11TfSpinMutex17_AcquireContendedEvENK3$_0clEv"(ptr noundef nonnull align 8 dereferenceable(8) %0) #1 align 2 {
  %2 = alloca ptr, align 8
  store ptr %0, ptr %2, align 8
  %3 = load ptr, ptr %2, align 8
  %4 = getelementptr inbounds nuw %class.anon, ptr %3, i32 0, i32 0
  %5 = load ptr, ptr %4, align 8
  %6 = getelementptr inbounds nuw %"class.pxrInternal_v0_24__pxrReserved__::TfSpinMutex", ptr %5, i32 0, i32 0
  %7 = call noundef zeroext i1 @_ZNSt6atomicIbE8exchangeEbSt12memory_order(ptr noundef nonnull align 1 dereferenceable(1) %6, i1 noundef zeroext true, i32 noundef 2) #2
  %8 = zext i1 %7 to i32
  %9 = icmp eq i32 %8, 0
  ret i1 %9
}

; Function Attrs: nounwind
declare void @llvm.x86.sse2.pause() #2

; Function Attrs: mustprogress nounwind uwtable
define linkonce_odr void @_ZNSt11this_thread5yieldEv() #1 comdat personality ptr @__gxx_personality_v0 {
  %1 = invoke noundef i32 @_ZL15__gthread_yieldv()
          to label %2 unwind label %3

2:                                                ; preds = %0
  ret void

3:                                                ; preds = %0
  %4 = landingpad { ptr, i32 }
          catch ptr null
  %5 = extractvalue { ptr, i32 } %4, 0
  call void @__clang_call_terminate(ptr %5) #5
  unreachable
}

; Function Attrs: mustprogress nounwind uwtable
define linkonce_odr noundef zeroext i1 @_ZNSt6atomicIbE8exchangeEbSt12memory_order(ptr noundef nonnull align 1 dereferenceable(1) %0, i1 noundef zeroext %1, i32 noundef %2) #1 comdat align 2 {
  %4 = alloca ptr, align 8
  %5 = alloca i8, align 1
  %6 = alloca i32, align 4
  %7 = alloca i8, align 1
  %8 = alloca i8, align 1
  %9 = alloca ptr, align 8
  %10 = alloca i8, align 1
  %11 = alloca i32, align 4
  store ptr %0, ptr %9, align 8
  %12 = zext i1 %1 to i8
  store i8 %12, ptr %10, align 1
  store i32 %2, ptr %11, align 4
  %13 = load ptr, ptr %9, align 8
  %14 = getelementptr inbounds nuw %"struct.std::atomic", ptr %13, i32 0, i32 0
  %15 = load i8, ptr %10, align 1
  %16 = trunc i8 %15 to i1
  %17 = load i32, ptr %11, align 4
  store ptr %14, ptr %4, align 8
  %18 = zext i1 %16 to i8
  store i8 %18, ptr %5, align 1
  store i32 %17, ptr %6, align 4
  %19 = load ptr, ptr %4, align 8
  %20 = load i32, ptr %6, align 4
  %21 = load i8, ptr %5, align 1
  %22 = trunc i8 %21 to i1
  %23 = zext i1 %22 to i8
  store i8 %23, ptr %7, align 1
  switch i32 %20, label %24 [
    i32 1, label %27
    i32 2, label %27
    i32 3, label %30
    i32 4, label %33
    i32 5, label %36
  ]

24:                                               ; preds = %3
  %25 = load i8, ptr %7, align 1
  %26 = atomicrmw xchg ptr %19, i8 %25 monotonic, align 1
  store i8 %26, ptr %8, align 1
  br label %39

27:                                               ; preds = %3, %3
  %28 = load i8, ptr %7, align 1
  %29 = atomicrmw xchg ptr %19, i8 %28 acquire, align 1
  store i8 %29, ptr %8, align 1
  br label %39

30:                                               ; preds = %3
  %31 = load i8, ptr %7, align 1
  %32 = atomicrmw xchg ptr %19, i8 %31 release, align 1
  store i8 %32, ptr %8, align 1
  br label %39

33:                                               ; preds = %3
  %34 = load i8, ptr %7, align 1
  %35 = atomicrmw xchg ptr %19, i8 %34 acq_rel, align 1
  store i8 %35, ptr %8, align 1
  br label %39

36:                                               ; preds = %3
  %37 = load i8, ptr %7, align 1
  %38 = atomicrmw xchg ptr %19, i8 %37 seq_cst, align 1
  store i8 %38, ptr %8, align 1
  br label %39

39:                                               ; preds = %36, %33, %30, %27, %24
  %40 = load i8, ptr %8, align 1
  %41 = trunc i8 %40 to i1
  ret i1 %41
}

; Function Attrs: mustprogress nounwind uwtable
define internal noundef i32 @_ZL15__gthread_yieldv() #1 {
  %1 = call i32 @sched_yield() #2
  ret i32 %1
}

declare i32 @__gxx_personality_v0(...)

; Function Attrs: noreturn nounwind uwtable
define linkonce_odr hidden void @__clang_call_terminate(ptr noundef %0) #3 comdat {
  %2 = call ptr @__cxa_begin_catch(ptr %0) #2
  call void @_ZSt9terminatev() #5
  unreachable
}

declare ptr @__cxa_begin_catch(ptr)

declare void @_ZSt9terminatev()

; Function Attrs: nounwind
declare i32 @sched_yield() #4


!llvm.module.flags = !{!0, !1, !2, !3}

!0 = !{i32 1, !"wchar_size", i32 4}
!1 = !{i32 8, !"PIC Level", i32 2}
!2 = !{i32 7, !"uwtable", i32 2}
!3 = !{i32 7, !"frame-pointer", i32 2}
!4 = distinct !{!4, !5}
!5 = !{!"llvm.loop.mustprogress"}
!6 = distinct !{!6, !5}
